target datalayout = "e-m:e-p270:32:32-p271:32:32-p272:64:64-i64:64-i128:128-f80:128-n8:16:32:64-S128"
target triple = "x86_64-pc-linux-gnu"

%struct.wtap_reader = type { i32, i64, i64, i32, %struct.wtap_reader_buf, %struct.wtap_reader_buf, i8, i64, i64, i32, i32, i8, i64, i8, i32, ptr, %struct.z_stream_s, i8, ptr, ptr, %struct.LZ4F_frameInfo_t, [19 x i8], ptr, ptr }
%struct.wtap_reader_buf = type { ptr, ptr, i32 }
%struct.z_stream_s = type { ptr, i32, i64, ptr, i32, i64, ptr, ptr, ptr, ptr, ptr, i32, i64, i64 }
%struct.LZ4F_frameInfo_t = type { i32, i32, i32, i32, i64, i32, i32 }

; Function Attrs: null_pointer_is_valid sspstrong uwtable
define i32 @file_getc(ptr noundef %0) #0 {
  %2 = alloca i32, align 4
  %3 = alloca ptr, align 8
  %4 = alloca [1 x i8], align 1
  %5 = alloca i32, align 4
  %6 = alloca i32, align 4
  store ptr %0, ptr %3, align 8
  call void @llvm.lifetime.start.p0(i64 1, ptr %4) #14
  call void @llvm.lifetime.start.p0(i64 4, ptr %5) #14
  %7 = load ptr, ptr %3, align 8
  %8 = getelementptr inbounds nuw %struct.wtap_reader, ptr %7, i32 0, i32 14
  %9 = load i32, ptr %8, align 4
  %10 = icmp ne i32 %9, 0
  br i1 %10, label %11, label %12

11:                                               ; preds = %1
  store i32 -1, ptr %2, align 4
  store i32 1, ptr %6, align 4
  br label %48

12:                                               ; preds = %1
  %13 = load ptr, ptr %3, align 8
  %14 = getelementptr inbounds nuw %struct.wtap_reader, ptr %13, i32 0, i32 5
  %15 = getelementptr inbounds nuw %struct.wtap_reader_buf, ptr %14, i32 0, i32 2
  %16 = load i32, ptr %15, align 8
  %17 = icmp ne i32 %16, 0
  br i1 %17, label %18, label %35

18:                                               ; preds = %12
  %19 = load ptr, ptr %3, align 8
  %20 = getelementptr inbounds nuw %struct.wtap_reader, ptr %19, i32 0, i32 5
  %21 = getelementptr inbounds nuw %struct.wtap_reader_buf, ptr %20, i32 0, i32 2
  %22 = load i32, ptr %21, align 8
  %23 = add i32 %22, -1
  store i32 %23, ptr %21, align 8
  %24 = load ptr, ptr %3, align 8
  %25 = getelementptr inbounds nuw %struct.wtap_reader, ptr %24, i32 0, i32 2
  %26 = load i64, ptr %25, align 8
  %27 = add i64 %26, 1
  store i64 %27, ptr %25, align 8
  %28 = load ptr, ptr %3, align 8
  %29 = getelementptr inbounds nuw %struct.wtap_reader, ptr %28, i32 0, i32 5
  %30 = getelementptr inbounds nuw %struct.wtap_reader_buf, ptr %29, i32 0, i32 1
  %31 = load ptr, ptr %30, align 8
  %32 = getelementptr i8, ptr %31, i32 1
  store ptr %32, ptr %30, align 8
  %33 = load i8, ptr %31, align 1
  %34 = zext i8 %33 to i32
  store i32 %34, ptr %2, align 4
  store i32 1, ptr %6, align 4
  br label %48

35:                                               ; preds = %12
  %36 = getelementptr inbounds [1 x i8], ptr %4, i64 0, i64 0
  %37 = load ptr, ptr %3, align 8
  %38 = call i32 @file_read(ptr noundef %36, i32 noundef 1, ptr noundef %37)
  store i32 %38, ptr %5, align 4
  %39 = load i32, ptr %5, align 4
  %40 = icmp slt i32 %39, 1
  br i1 %40, label %41, label %42

41:                                               ; preds = %35
  br label %46

42:                                               ; preds = %35
  %43 = getelementptr [1 x i8], ptr %4, i64 0, i64 0
  %44 = load i8, ptr %43, align 1
  %45 = zext i8 %44 to i32
  br label %46

46:                                               ; preds = %42, %41
  %47 = phi i32 [ -1, %41 ], [ %45, %42 ]
  store i32 %47, ptr %2, align 4
  store i32 1, ptr %6, align 4
  br label %48

48:                                               ; preds = %46, %18, %11
  call void @llvm.lifetime.end.p0(i64 4, ptr %5) #14
  call void @llvm.lifetime.end.p0(i64 1, ptr %4) #14
  %49 = load i32, ptr %2, align 4
  ret i32 %49
}