; Function Attrs: null_pointer_is_valid sspstrong uwtable
define range(i32 -1, 256) i32 @file_getc(ptr noundef %0) local_unnamed_addr #0 {
  %2 = alloca [1 x i8], align 1
  call void @llvm.lifetime.start.p0(i64 1, ptr nonnull %2) #21
  %3 = getelementptr inbounds nuw i8, ptr %0, i64 132
  %4 = load i32, ptr %3, align 4
  %.not = icmp eq i32 %4, 0
  br i1 %.not, label %5, label %24

5:                                                ; preds = %1
  %6 = getelementptr inbounds nuw i8, ptr %0, i64 72
  %7 = load i32, ptr %6, align 8
  %.not8 = icmp eq i32 %7, 0
  br i1 %.not8, label %18, label %8

8:                                                ; preds = %5
  %9 = add i32 %7, -1
  store i32 %9, ptr %6, align 8
  %10 = getelementptr inbounds nuw i8, ptr %0, i64 16
  %11 = load i64, ptr %10, align 8
  %12 = add i64 %11, 1
  store i64 %12, ptr %10, align 8
  %13 = getelementptr inbounds nuw i8, ptr %0, i64 64
  %14 = load ptr, ptr %13, align 8
  %15 = getelementptr i8, ptr %14, i64 1
  store ptr %15, ptr %13, align 8
  %16 = load i8, ptr %14, align 1
  %17 = zext i8 %16 to i32
  br label %24

18:                                               ; preds = %5
  %19 = call i32 @file_read(ptr noundef nonnull %2, i32 noundef 1, ptr noundef %0)
  %20 = icmp slt i32 %19, 1
  %21 = load i8, ptr %2, align 1
  %22 = zext i8 %21 to i32
  %23 = select i1 %20, i32 -1, i32 %22
  br label %24

24:                                               ; preds = %1, %18, %8
  %.0 = phi i32 [ %17, %8 ], [ %23, %18 ], [ -1, %1 ]
  call void @llvm.lifetime.end.p0(i64 1, ptr nonnull %2) #21
  ret i32 %.0
}